; ModuleID = 'bench/linux/original/xattr_trusted.ll'
source_filename = "bench/linux/original/xattr_trusted.ll"
target datalayout = "e-m:e-p270:32:32-p271:32:32-p272:64:64-i64:64-i128:128-f80:128-n8:16:32:64-S128"
target triple = "x86_64-unknown-linux-gnu"

%struct.xattr_handler = type { ptr, ptr, i32, ptr, ptr, ptr }

@.str = private unnamed_addr constant [9 x i8] c"trusted.\00", align 1
@ext4_xattr_trusted_handler = dso_local local_unnamed_addr constant %struct.xattr_handler { ptr null, ptr @.str, i32 0, ptr @ext4_xattr_trusted_list, ptr @ext4_xattr_trusted_get, ptr @ext4_xattr_trusted_set }, align 8

; Function Attrs: fn_ret_thunk_extern nounwind null_pointer_is_valid
define internal zeroext i1 @ext4_xattr_trusted_list(ptr nocapture readnone %0) #0 align 16 {
  %2 = tail call zeroext i1 @capable(i32 noundef 21) #2
  ret i1 %2
}

; Function Attrs: fn_ret_thunk_extern nounwind null_pointer_is_valid
define internal i32 @ext4_xattr_trusted_get(ptr nocapture readnone %0, ptr nocapture readnone %1, ptr noundef %2, ptr noundef %3, ptr noundef %4, i64 noundef %5) #0 align 16 {
  %7 = tail call i32 @ext4_xattr_get(ptr noundef %2, i32 noundef 4, ptr noundef %3, ptr noundef %4, i64 noundef %5) #2
  ret i32 %7
}

; Function Attrs: fn_ret_thunk_extern nounwind null_pointer_is_valid
define internal i32 @ext4_xattr_trusted_set(ptr nocapture readnone %0, ptr nocapture readnone %1, ptr nocapture readnone %2, ptr noundef %3, ptr noundef %4, ptr noundef %5, i64 noundef %6, i32 noundef %7) #0 align 16 {
  %9 = tail call i32 @ext4_xattr_set(ptr noundef %3, i32 noundef 4, ptr noundef %4, ptr noundef %5, i64 noundef %6, i32 noundef %7) #2
  ret i32 %9
}

; Function Attrs: null_pointer_is_valid
declare dso_local zeroext i1 @capable(i32 noundef) local_unnamed_addr #1

; Function Attrs: null_pointer_is_valid
declare dso_local i32 @ext4_xattr_get(ptr noundef, i32 noundef, ptr noundef, ptr noundef, i64 noundef) local_unnamed_addr #1

; Function Attrs: null_pointer_is_valid
declare dso_local i32 @ext4_xattr_set(ptr noundef, i32 noundef, ptr noundef, ptr noundef, i64 noundef, i32 noundef) local_unnamed_addr #1


!llvm.module.flags = !{!0, !1, !2, !3, !4}

!0 = !{i32 1, !"wchar_size", i32 2}
!1 = !{i32 8, !"cf-protection-branch", i32 1}
!2 = !{i32 4, !"function_return_thunk_extern", i32 1}
!3 = !{i32 4, !"indirect_branch_cs_prefix", i32 1}
!4 = !{i32 4, !"SkipRaxSetup", i32 1}
